target datalayout = "e-m:e-p270:32:32-p271:32:32-p272:64:64-i64:64-i128:128-f80:128-n8:16:32:64-S128"
target triple = "x86_64-pc-linux-gnu"

%struct.job_info = type { ptr, i64, ptr, ptr, i32, ptr, i32, i32, i32, ptr, i32, ptr, i16, ptr, i64, i16, ptr, ptr, ptr, ptr, ptr, ptr, ptr, ptr, i16, i16, i16, double, i16, i32, i32, i32, ptr, ptr, i64, i32, ptr, i32, i64, i64, ptr, ptr, i32, ptr, ptr, ptr, ptr, i64, ptr, i64, ptr, i32, ptr, ptr, i32, i32, ptr, i32, i32, ptr, ptr, i32, i64, ptr, i16, ptr, i32, i32, ptr, ptr, ptr, ptr, ptr, i32, ptr, i16, i16, i16, i16, i16, i32, i32, i32, i16, ptr, ptr, i64, i16, i32, i64, i64, i64, i32, ptr, ptr, i32, ptr, i8, ptr, ptr, i32, i16, i64, i16, ptr, ptr, ptr, ptr, i16, i32, i16, i16, i64, i16, ptr, i32, ptr, ptr, ptr, i16, i64, i64, ptr, i32, i32, i16, ptr, ptr, ptr, ptr, ptr, ptr, ptr, ptr, i32, ptr, i32, ptr, ptr }
%struct.squeue_job_rec = type { i32, ptr, ptr, i32 }

@reverse_order = internal global i8 0, align 1

; Function Attrs: inlinehint nounwind uwtable
define internal i32 @_diff_time(i64 noundef %0, i64 noundef %1) #6 {
  %3 = alloca i32, align 4
  %4 = alloca i64, align 8
  %5 = alloca i64, align 8
  store i64 %0, ptr %4, align 8
  store i64 %1, ptr %5, align 8
  %6 = load i64, ptr %4, align 8
  %7 = load i64, ptr %5, align 8
  %8 = icmp sgt i64 %6, %7
  br i1 %8, label %9, label %10

9:                                                ; preds = %2
  store i32 1, ptr %3, align 4
  br label %16

10:                                               ; preds = %2
  %11 = load i64, ptr %4, align 8
  %12 = load i64, ptr %5, align 8
  %13 = icmp slt i64 %11, %12
  br i1 %13, label %14, label %15

14:                                               ; preds = %10
  store i32 -1, ptr %3, align 4
  br label %16

15:                                               ; preds = %10
  store i32 0, ptr %3, align 4
  br label %16

16:                                               ; preds = %15, %14, %9
  %17 = load i32, ptr %3, align 4
  ret i32 %17
}

; Function Attrs: nounwind uwtable
define internal void @_get_job_info_from_void(ptr noundef %0, ptr noundef %1, ptr noundef %2, ptr noundef %3) #0 {
  %5 = alloca ptr, align 8
  %6 = alloca ptr, align 8
  %7 = alloca ptr, align 8
  %8 = alloca ptr, align 8
  store ptr %0, ptr %5, align 8
  store ptr %1, ptr %6, align 8
  store ptr %2, ptr %7, align 8
  store ptr %3, ptr %8, align 8
  %9 = load ptr, ptr %7, align 8
  %10 = load ptr, ptr %9, align 8
  %11 = getelementptr inbounds nuw %struct.squeue_job_rec, ptr %10, i32 0, i32 1
  %12 = load ptr, ptr %11, align 8
  %13 = load ptr, ptr %5, align 8
  store ptr %12, ptr %13, align 8
  %14 = load ptr, ptr %8, align 8
  %15 = load ptr, ptr %14, align 8
  %16 = getelementptr inbounds nuw %struct.squeue_job_rec, ptr %15, i32 0, i32 1
  %17 = load ptr, ptr %16, align 8
  %18 = load ptr, ptr %6, align 8
  store ptr %17, ptr %18, align 8
  ret void
}

; Function Attrs: nounwind uwtable
define internal i32 @_sort_job_by_time_submit(ptr noundef %0, ptr noundef %1) #0 {
  %3 = alloca ptr, align 8
  %4 = alloca ptr, align 8
  %5 = alloca i32, align 4
  %6 = alloca ptr, align 8
  %7 = alloca ptr, align 8
  store ptr %0, ptr %3, align 8
  store ptr %1, ptr %4, align 8
  call void @llvm.lifetime.start.p0(i64 4, ptr %5) #8
  call void @llvm.lifetime.start.p0(i64 8, ptr %6) #8
  call void @llvm.lifetime.start.p0(i64 8, ptr %7) #8
  %8 = load ptr, ptr %3, align 8
  %9 = load ptr, ptr %4, align 8
  call void @_get_job_info_from_void(ptr noundef %6, ptr noundef %7, ptr noundef %8, ptr noundef %9)
  %10 = load ptr, ptr %6, align 8
  %11 = getelementptr inbounds nuw %struct.job_info, ptr %10, i32 0, i32 120
  %12 = load i64, ptr %11, align 8
  %13 = load ptr, ptr %7, align 8
  %14 = getelementptr inbounds nuw %struct.job_info, ptr %13, i32 0, i32 120
  %15 = load i64, ptr %14, align 8
  %16 = call i32 @_diff_time(i64 noundef %12, i64 noundef %15)
  store i32 %16, ptr %5, align 4
  %17 = load i8, ptr @reverse_order, align 1, !range !11, !noundef !12
  %18 = trunc i8 %17 to i1
  br i1 %18, label %19, label %22

19:                                               ; preds = %2
  %20 = load i32, ptr %5, align 4
  %21 = sub nsw i32 0, %20
  store i32 %21, ptr %5, align 4
  br label %22

22:                                               ; preds = %19, %2
  %23 = load i32, ptr %5, align 4
  call void @llvm.lifetime.end.p0(i64 8, ptr %7) #8
  call void @llvm.lifetime.end.p0(i64 8, ptr %6) #8
  call void @llvm.lifetime.end.p0(i64 4, ptr %5) #8
  ret i32 %23
}